(dp1
S'name'
p2
S'CHAR(32)'
p3
sS'epsg'
p4
S'CHAR(32)'
p5
sS'modified_on'
p6
S'TIMESTAMP'
p7
sS'units'
p8
S'CHAR(32)'
p9
sS'maxResolution'
p10
S'CHAR(32)'
p11
sS'maxExtent'
p12
S'CHAR(32)'
p13
sS'id'
p14
S'INTEGER PRIMARY KEY AUTOINCREMENT'
p15
sS'uuid'
p16
S'CHAR(64)'
p17
s.