(dp1
S'apikey'
p2
S'CHAR(32)'
p3
sS'description'
p4
S'CHAR(256)'
p5
sS'service'
p6
S'CHAR(32)'
p7
sS'key'
p8
S'CHAR(32)'
p9
sS'modified_on'
p10
S'TIMESTAMP'
p11
sS'id'
p12
S'INTEGER PRIMARY KEY AUTOINCREMENT'
p13
s.