(dp1
S'projection'
p2
S'CHAR(64)'
p3
sS'map_height'
p4
S'CHAR(32)'
p5
sS'map_width'
p6
S'CHAR(32)'
p7
sS'lon'
p8
S'CHAR(32)'
p9
sS'zoom'
p10
S'CHAR(32)'
p11
sS'value'
p12
S'CHAR(32)'
p13
sS'lat'
p14
S'CHAR(32)'
p15
sS'setting'
p16
S'CHAR(32)'
p17
sS'marker'
p18
S'CHAR(64)'
p19
sS'id'
p20
S'INTEGER PRIMARY KEY AUTOINCREMENT'
p21
sS'description'
p22
S'CHAR(256)'
p23
s.